; Function Attrs: nounwind uwtable
define internal noundef i32 @lj_cf_buffer_method___tostring(ptr noundef %0) #0 {
  %2 = getelementptr inbounds nuw i8, ptr %0, i64 32
  %3 = load ptr, ptr %2, align 8, !tbaa !4
  %4 = getelementptr inbounds nuw i8, ptr %0, i64 40
  %5 = load ptr, ptr %4, align 8, !tbaa !14
  %6 = icmp ult ptr %3, %5
  br i1 %6, label %7, label %16

7:                                                ; preds = %1
  %8 = load i64, ptr %3, align 8, !tbaa !15
  %.mask.i = and i64 %8, -140737488355328
  %9 = icmp eq i64 %.mask.i, -1829587348619264
  br i1 %9, label %10, label %16

10:                                               ; preds = %7
  %11 = and i64 %8, 140737488355327
  %12 = inttoptr i64 %11 to ptr
  %13 = getelementptr inbounds nuw i8, ptr %12, i64 10
  %14 = load i8, ptr %13, align 2, !tbaa !15
  %15 = icmp eq i8 %14, 3
  br i1 %15, label %buffer_tobuf.exit, label %16

16:                                               ; preds = %10, %7, %1
  tail call void @lj_err_argtype(ptr noundef nonnull %0, i32 noundef 1, ptr noundef nonnull @.str.2) #7
  unreachable

buffer_tobuf.exit:                                ; preds = %10
  %17 = getelementptr inbounds nuw i8, ptr %12, i64 48
  %18 = getelementptr inbounds i8, ptr %5, i64 -8
  %19 = getelementptr inbounds nuw i8, ptr %12, i64 88
  %20 = load ptr, ptr %19, align 8, !tbaa !35
  %21 = load ptr, ptr %17, align 8, !tbaa !34
  %22 = ptrtoint ptr %21 to i64
  %23 = ptrtoint ptr %20 to i64
  %24 = sub i64 %22, %23
  %25 = and i64 %24, 4294967295
  %26 = tail call ptr @lj_str_new(ptr noundef nonnull %0, ptr noundef %20, i64 noundef %25) #6
  %27 = ptrtoint ptr %26 to i64
  %28 = or i64 %27, -703687441776640
  store i64 %28, ptr %18, align 8, !tbaa !15
  %29 = getelementptr inbounds nuw i8, ptr %0, i64 16
  %30 = load i64, ptr %29, align 8, !tbaa !19
  %31 = inttoptr i64 %30 to ptr
  %32 = getelementptr inbounds nuw i8, ptr %31, i64 16
  %33 = load i64, ptr %32, align 8, !tbaa !22
  %34 = getelementptr inbounds nuw i8, ptr %31, i64 24
  %35 = load i64, ptr %34, align 8, !tbaa !51
  %.not = icmp ult i64 %33, %35
  br i1 %.not, label %38, label %36, !prof !52

36:                                               ; preds = %buffer_tobuf.exit
  %37 = tail call i32 @lj_gc_step(ptr noundef nonnull %0) #6
  br label %38

38:                                               ; preds = %36, %buffer_tobuf.exit
  ret i32 1
}